; ModuleID = '54/408.c'
source_filename = "54/408.c"
target datalayout = "e-m:e-p270:32:32-p271:32:32-p272:64:64-i64:64-f80:128-n8:16:32:64-S128"
target triple = "x86_64-pc-linux-gnu"

@.str = private unnamed_addr constant [6 x i8] c"%d %d\00", align 1
@.str.1 = private unnamed_addr constant [5 x i8] c"%ld\0A\00", align 1

; Function Attrs: noinline nounwind uwtable
define dso_local void @main() #0 {
  %1 = alloca i32, align 4
  %2 = alloca i32, align 4
  %3 = alloca i32, align 4
  %4 = alloca i32, align 4
  %5 = alloca i64, align 8
  %6 = alloca i64, align 8
  store i32 0, i32* %3, align 4
  %7 = call i32 (i8*, ...) @__isoc99_scanf(i8* getelementptr inbounds ([6 x i8], [6 x i8]* @.str, i64 0, i64 0), i32* %1, i32* %4)
  br label %8

8:                                                ; preds = %38, %0
  store i32 1, i32* %2, align 4
  %9 = load i32, i32* %3, align 4
  %10 = add nsw i32 %9, 1
  store i32 %10, i32* %3, align 4
  %11 = load i32, i32* %1, align 4
  %12 = load i32, i32* %3, align 4
  %13 = mul nsw i32 %11, %12
  %14 = load i32, i32* %4, align 4
  %15 = add nsw i32 %13, %14
  %16 = sext i32 %15 to i64
  store i64 %16, i64* %5, align 8
  br label %17

17:                                               ; preds = %40, %8
  %18 = load i64, i64* %5, align 8
  %19 = load i32, i32* %1, align 4
  %20 = sub nsw i32 %19, 1
  %21 = sext i32 %20 to i64
  %22 = srem i64 %18, %21
  %23 = icmp eq i64 %22, 0
  br i1 %23, label %24, label %38

24:                                               ; preds = %17
  %25 = load i64, i64* %5, align 8
  %26 = load i32, i32* %1, align 4
  %27 = sub nsw i32 %26, 1
  %28 = sext i32 %27 to i64
  %29 = sdiv i64 %25, %28
  %30 = load i32, i32* %1, align 4
  %31 = sext i32 %30 to i64
  %32 = mul nsw i64 %29, %31
  %33 = load i32, i32* %4, align 4
  %34 = sext i32 %33 to i64
  %35 = add nsw i64 %32, %34
  store i64 %35, i64* %5, align 8
  %36 = load i32, i32* %2, align 4
  %37 = add nsw i32 %36, 1
  store i32 %37, i32* %2, align 4
  br label %39

38:                                               ; preds = %17
  br label %8

39:                                               ; preds = %24
  br label %40

40:                                               ; preds = %39
  %41 = load i32, i32* %2, align 4
  %42 = load i32, i32* %1, align 4
  %43 = icmp slt i32 %41, %42
  br i1 %43, label %17, label %44

44:                                               ; preds = %40
  %45 = load i64, i64* %5, align 8
  %46 = call i32 (i8*, ...) @printf(i8* getelementptr inbounds ([5 x i8], [5 x i8]* @.str.1, i64 0, i64 0), i64 %45)
  ret void
}

declare dso_local i32 @__isoc99_scanf(i8*, ...) #1

declare dso_local i32 @printf(i8*, ...) #1


!llvm.module.flags = !{!0}
!llvm.ident = !{!1}

!0 = !{i32 1, !"wchar_size", i32 4}
!1 = !{!"clang version 10.0.0-4ubuntu1 "}
